Certificate:
    Data:
        Version: 3 (0x2)
        Serial Number:
            e6:28:b8:1b:99:ef:b3:a9:25:15:bb:04:d8:90:17:97
        Signature Algorithm: sha256WithRSAEncryption
        Issuer: CN=Easy-RSA CA
        Validity
            Not Before: Nov 27 18:38:13 2021 GMT
            Not After : Mar  1 18:38:13 2024 GMT
        Subject: CN=127.0.0.1
        Subject Public Key Info:
            Public Key Algorithm: rsaEncryption
                RSA Public-Key: (2048 bit)
                Modulus:
                    00:d4:c9:7b:c3:44:4d:5f:9b:fc:ac:14:d9:36:2b:
                    54:42:24:57:1a:07:28:9e:ce:c6:2e:ba:ae:4d:30:
                    fe:49:04:ba:4b:f4:43:44:bc:1d:64:a1:da:49:b4:
                    f2:44:a5:74:3e:b2:b0:3e:df:4b:e9:73:dc:e1:b0:
                    74:9a:c2:4f:ec:95:0f:b0:74:fe:69:d1:2d:27:44:
                    a8:cd:9c:1a:c5:93:72:68:0a:26:eb:35:6c:e1:1f:
                    3f:7b:c2:9a:d3:03:ec:5d:b3:e1:20:26:64:9f:23:
                    39:65:f7:9d:99:34:58:cc:12:5c:0c:2a:d2:e3:41:
                    79:ba:56:58:8c:50:dd:d9:85:98:4a:6f:8b:b9:97:
                    85:9b:b4:a6:90:a9:c7:cb:24:60:fe:24:27:b7:75:
                    36:cf:ee:ac:4d:df:ec:c1:ad:df:d0:fc:09:53:20:
                    1e:69:ee:a8:20:4f:e9:6c:3f:e7:0b:50:1c:a1:bf:
                    00:71:cc:fc:70:7f:38:b8:21:ec:46:2d:5c:74:4b:
                    f5:b4:0a:75:ad:e0:c3:4f:05:cb:bb:cd:a3:79:9f:
                    9d:b8:9f:39:2f:2b:25:25:9a:42:1a:fa:fc:cb:08:
                    68:da:14:57:cf:0e:59:7a:6b:1e:b1:25:56:9b:d5:
                    d2:bc:c5:da:d6:d0:ab:cb:78:fd:a3:a7:9a:c7:69:
                    cb:4f
                Exponent: 65537 (0x10001)
        X509v3 extensions:
            X509v3 Basic Constraints: 
                CA:FALSE
            X509v3 Subject Key Identifier: 
                7F:77:42:E7:83:DD:31:0B:B5:D0:9B:3C:B7:82:83:38:30:EC:53:AE
            X509v3 Authority Key Identifier: 
                keyid:20:21:DA:DD:53:4B:6B:52:20:B9:4E:9F:5D:ED:54:B3:7D:D6:1B:DF
                DirName:/CN=Easy-RSA CA
                serial:49:A5:19:6F:B6:D5:50:C5:45:DA:C3:80:5B:1A:3B:86:ED:C4:FB:9B

            X509v3 Extended Key Usage: 
                TLS Web Server Authentication
            X509v3 Key Usage: 
                Digital Signature, Key Encipherment
            X509v3 Subject Alternative Name: 
                IP Address:127.0.0.1
    Signature Algorithm: sha256WithRSAEncryption
         5a:41:bd:5d:a3:73:9f:a5:c0:56:b0:4e:bd:1a:a3:95:17:1e:
         99:4c:12:54:8d:4d:19:f3:af:89:6f:29:01:98:1c:6a:a3:56:
         a5:df:47:8d:a3:b9:22:cc:a8:23:ed:18:a8:be:a6:1f:9d:d4:
         9e:81:6e:f0:24:84:48:49:a5:e1:21:97:b2:18:fe:70:d0:aa:
         a5:f3:f9:ac:28:12:39:a2:30:ae:5b:40:83:2d:cc:46:0b:5f:
         13:5a:98:d3:b2:41:af:88:31:0d:7c:2a:0d:70:3d:dd:4d:70:
         60:13:79:4c:45:e1:17:8f:6d:62:5e:7c:be:ea:67:3a:9a:39:
         95:05:83:a6:cb:68:dd:d4:57:d3:2a:8d:be:29:42:e6:c6:2d:
         1a:28:9a:f1:75:2d:b7:43:99:ca:d2:8e:3e:9e:a5:e1:d9:19:
         ec:4e:eb:ab:2e:3b:24:85:be:10:01:19:e1:11:63:bd:90:13:
         87:6b:93:35:8a:bb:57:5f:d1:cc:f0:5e:47:43:f8:7f:14:3d:
         2a:8f:37:8a:7d:e8:1f:87:f7:46:b5:02:5d:e6:ee:80:41:d8:
         da:8a:bf:75:97:f7:5f:e1:c0:be:17:fa:e0:22:21:3f:37:a1:
         e8:a2:eb:71:9e:fd:ff:a3:60:e1:37:5b:47:8b:88:e9:62:1a:
         e2:2a:5a:0d
-----BEGIN CERTIFICATE-----
MIIDaTCCAlGgAwIBAgIRAOYouBuZ77OpJRW7BNiQF5cwDQYJKoZIhvcNAQELBQAw
FjEUMBIGA1UEAwwLRWFzeS1SU0EgQ0EwHhcNMjExMTI3MTgzODEzWhcNMjQwMzAx
MTgzODEzWjAUMRIwEAYDVQQDDAkxMjcuMC4wLjEwggEiMA0GCSqGSIb3DQEBAQUA
A4IBDwAwggEKAoIBAQDUyXvDRE1fm/ysFNk2K1RCJFcaByiezsYuuq5NMP5JBLpL
9ENEvB1kodpJtPJEpXQ+srA+30vpc9zhsHSawk/slQ+wdP5p0S0nRKjNnBrFk3Jo
CibrNWzhHz97wprTA+xds+EgJmSfIzll952ZNFjMElwMKtLjQXm6VliMUN3ZhZhK
b4u5l4WbtKaQqcfLJGD+JCe3dTbP7qxN3+zBrd/Q/AlTIB5p7qggT+lsP+cLUByh
vwBxzPxwfzi4IexGLVx0S/W0CnWt4MNPBcu7zaN5n524nzkvKyUlmkIa+vzLCGja
FFfPDll6ax6xJVab1dK8xdrW0KvLeP2jp5rHactPAgMBAAGjgbMwgbAwCQYDVR0T
BAIwADAdBgNVHQ4EFgQUf3dC54PdMQu10Js8t4KDODDsU64wUQYDVR0jBEowSIAU
ICHa3VNLa1IguU6fXe1Us33WG9+hGqQYMBYxFDASBgNVBAMMC0Vhc3ktUlNBIENB
ghRJpRlvttVQxUXaw4BbGjuG7cT7mzATBgNVHSUEDDAKBggrBgEFBQcDATALBgNV
HQ8EBAMCBaAwDwYDVR0RBAgwBocEfwAAATANBgkqhkiG9w0BAQsFAAOCAQEAWkG9
XaNzn6XAVrBOvRqjlRcemUwSVI1NGfOviW8pAZgcaqNWpd9HjaO5IsyoI+0YqL6m
H53UnoFu8CSESEml4SGXshj+cNCqpfP5rCgSOaIwrltAgy3MRgtfE1qY07JBr4gx
DXwqDXA93U1wYBN5TEXhF49tYl58vupnOpo5lQWDpsto3dRX0yqNvilC5sYtGiia
8XUtt0OZytKOPp6l4dkZ7E7rqy47JIW+EAEZ4RFjvZATh2uTNYq7V1/RzPBeR0P4
fxQ9Ko83in3oH4f3RrUCXebugEHY2oq/dZf3X+HAvhf64CIhPzeh6KLrcZ79/6Ng
4TdbR4uI6WIa4ipaDQ==
-----END CERTIFICATE-----
