Certificate:
    Data:
        Version: 3 (0x2)
        Serial Number:
            56:5e:69:bb:0d:bf:77:3c:03:9c:09:9b:1b:4b:7f:e5
        Signature Algorithm: sha256WithRSAEncryption
        Issuer: CN=Wouter
        Validity
            Not Before: Dec  9 14:09:09 2021 GMT
            Not After : Mar 13 14:09:09 2024 GMT
        Subject: CN=127.0.0.1
        Subject Public Key Info:
            Public Key Algorithm: rsaEncryption
                RSA Public-Key: (2048 bit)
                Modulus:
                    00:b7:43:73:2d:45:56:4c:17:7e:67:f0:d3:76:06:
                    e1:41:c8:0f:de:2b:df:e7:73:d1:1f:3a:50:5f:07:
                    08:5e:d5:a9:23:1e:6f:a5:66:ea:e5:be:b0:0b:92:
                    86:2f:fc:c2:87:81:ee:23:cf:91:42:18:57:5d:1d:
                    89:6a:fc:c8:33:4f:2e:f1:fd:20:da:30:83:94:3b:
                    d7:95:1f:9c:cd:1f:80:67:8c:ae:5b:93:12:7d:a0:
                    48:fc:9f:aa:53:0a:a3:f2:e4:04:7a:01:99:f4:9c:
                    81:cc:0a:14:2f:fd:52:29:f5:1e:3a:7f:25:f9:96:
                    db:c8:c4:80:a2:fd:1e:fd:34:0c:cb:64:c3:29:56:
                    64:8a:be:78:a6:fb:21:53:eb:5d:6d:76:c7:6a:ef:
                    70:cb:38:0c:dd:d8:23:9b:85:66:ba:c3:1b:23:5d:
                    29:b1:b0:37:01:ca:0d:fc:0f:f8:1d:67:00:3a:0c:
                    16:ff:0d:d9:af:d5:f1:f1:ac:08:27:08:5c:74:1e:
                    c9:02:fe:61:91:91:bb:c6:fe:f4:d2:9f:83:f5:27:
                    d6:3f:aa:a5:df:3d:e1:60:ea:79:7d:36:96:71:bb:
                    b9:3a:a3:ac:02:8a:75:20:f0:8c:f7:69:2f:55:5e:
                    82:19:c7:50:f4:04:96:8a:b0:d5:ee:54:92:6d:3c:
                    6c:d9
                Exponent: 65537 (0x10001)
        X509v3 extensions:
            X509v3 Basic Constraints: 
                CA:FALSE
            X509v3 Subject Key Identifier: 
                6C:3A:1A:47:61:0C:F0:6C:CF:D0:10:A3:81:D3:3A:04:04:0C:67:93
            X509v3 Authority Key Identifier: 
                keyid:D6:7F:DF:23:E7:D8:02:00:CF:F5:5C:92:90:C3:F6:28:DD:1C:72:E8
                DirName:/CN=Wouter
                serial:1F:9D:71:6B:BF:F6:84:C4:FD:BE:CB:A0:27:F8:2F:8A:0B:65:EC:97

            X509v3 Extended Key Usage: 
                TLS Web Server Authentication
            X509v3 Key Usage: 
                Digital Signature, Key Encipherment
            X509v3 Subject Alternative Name: 
                IP Address:127.0.0.1
    Signature Algorithm: sha256WithRSAEncryption
         83:8f:d7:2c:a7:05:d5:ab:43:d0:15:02:14:2a:fa:8f:dc:ea:
         b4:73:da:45:a7:83:d9:bd:4d:8c:6b:c1:37:8b:e2:de:7b:ff:
         26:89:0e:3c:e4:7d:62:7c:fe:20:e5:86:c3:ff:0e:9e:c0:f8:
         61:d4:5e:df:d2:e4:15:8e:67:3c:6a:b2:b2:0a:dc:42:ca:20:
         31:8e:21:f8:4e:50:2d:52:36:81:ff:a8:50:0a:fc:af:c4:4a:
         a9:53:2d:7f:ad:6e:99:ea:ed:32:b4:81:01:50:2e:45:d3:a6:
         7f:27:b4:93:fb:9e:88:67:5b:97:a1:88:b6:b7:98:b7:1d:f3:
         b2:ef:cd:8a:7d:5a:c7:a8:c4:c8:ae:30:27:22:ce:64:6d:5b:
         f2:4a:9d:69:0f:88:95:9a:01:27:6e:c7:20:87:16:68:82:3e:
         0d:ef:d2:84:f3:54:2c:0e:de:1e:f7:f4:0f:5e:da:56:80:c2:
         55:ff:ff:1a:7e:f3:70:91:27:11:44:0f:0d:48:c4:23:ef:46:
         93:6d:dd:d9:8b:28:01:d9:66:a7:58:1b:82:c8:9b:08:58:73:
         70:04:58:ec:3d:ec:8c:00:b0:c2:18:dd:1c:1e:6e:c0:aa:73:
         0e:e9:66:be:ad:6e:69:b7:1c:48:d0:ef:31:d9:7b:18:6e:78:
         58:23:fa:9b
-----BEGIN CERTIFICATE-----
MIIDXjCCAkagAwIBAgIQVl5puw2/dzwDnAmbG0t/5TANBgkqhkiG9w0BAQsFADAR
MQ8wDQYDVQQDDAZXb3V0ZXIwHhcNMjExMjA5MTQwOTA5WhcNMjQwMzEzMTQwOTA5
WjAUMRIwEAYDVQQDDAkxMjcuMC4wLjEwggEiMA0GCSqGSIb3DQEBAQUAA4IBDwAw
ggEKAoIBAQC3Q3MtRVZMF35n8NN2BuFByA/eK9/nc9EfOlBfBwhe1akjHm+lZurl
vrALkoYv/MKHge4jz5FCGFddHYlq/MgzTy7x/SDaMIOUO9eVH5zNH4BnjK5bkxJ9
oEj8n6pTCqPy5AR6AZn0nIHMChQv/VIp9R46fyX5ltvIxICi/R79NAzLZMMpVmSK
vnim+yFT611tdsdq73DLOAzd2CObhWa6wxsjXSmxsDcByg38D/gdZwA6DBb/Ddmv
1fHxrAgnCFx0HskC/mGRkbvG/vTSn4P1J9Y/qqXfPeFg6nl9NpZxu7k6o6wCinUg
8Iz3aS9VXoIZx1D0BJaKsNXuVJJtPGzZAgMBAAGjga4wgaswCQYDVR0TBAIwADAd
BgNVHQ4EFgQUbDoaR2EM8GzP0BCjgdM6BAQMZ5MwTAYDVR0jBEUwQ4AU1n/fI+fY
AgDP9VySkMP2KN0ccuihFaQTMBExDzANBgNVBAMMBldvdXRlcoIUH51xa7/2hMT9
vsugJ/gvigtl7JcwEwYDVR0lBAwwCgYIKwYBBQUHAwEwCwYDVR0PBAQDAgWgMA8G
A1UdEQQIMAaHBH8AAAEwDQYJKoZIhvcNAQELBQADggEBAIOP1yynBdWrQ9AVAhQq
+o/c6rRz2kWng9m9TYxrwTeL4t57/yaJDjzkfWJ8/iDlhsP/Dp7A+GHUXt/S5BWO
ZzxqsrIK3ELKIDGOIfhOUC1SNoH/qFAK/K/ESqlTLX+tbpnq7TK0gQFQLkXTpn8n
tJP7nohnW5ehiLa3mLcd87LvzYp9WseoxMiuMCcizmRtW/JKnWkPiJWaASduxyCH
FmiCPg3v0oTzVCwO3h739A9e2laAwlX//xp+83CRJxFEDw1IxCPvRpNt3dmLKAHZ
ZqdYG4LImwhYc3AEWOw97IwAsMIY3RwebsCqcw7pZr6tbmm3HEjQ7zHZexhueFgj
+ps=
-----END CERTIFICATE-----
