Certificate:
    Data:
        Version: 3 (0x2)
        Serial Number:
            fb:bd:96:2f:fa:2d:0c:e5:b3:44:57:53:e5:1c:ec:2f
        Signature Algorithm: sha256WithRSAEncryption
        Issuer: CN=Easy-RSA CA
        Validity
            Not Before: Nov 26 09:53:47 2021 GMT
            Not After : Feb 29 09:53:47 2024 GMT
        Subject: CN=127.0.0.1
        Subject Public Key Info:
            Public Key Algorithm: rsaEncryption
                RSA Public-Key: (2048 bit)
                Modulus:
                    00:bf:58:ec:7a:df:dc:9f:26:a9:df:af:f0:e7:79:
                    13:84:97:a3:69:7e:bc:49:ac:6d:8b:b2:33:40:e4:
                    ca:da:83:28:36:9d:26:45:34:d7:f5:2d:96:17:f4:
                    ff:b5:25:55:17:14:a2:b3:9e:eb:cd:92:a0:b8:ec:
                    f9:4d:23:d5:de:da:27:21:13:da:cf:02:55:00:53:
                    2e:c5:83:d6:ad:9f:73:b2:45:2a:2e:79:5e:17:6b:
                    d6:0f:bd:76:c1:9f:76:91:56:68:88:ef:27:44:56:
                    69:38:d6:f0:80:43:e9:b9:6a:de:73:a8:4f:8d:0d:
                    d5:84:a6:c0:f5:58:96:35:7f:b7:ec:3a:55:98:53:
                    a2:ed:2d:9a:b1:df:a5:f0:a9:14:8d:eb:12:09:65:
                    ec:99:11:27:93:82:46:be:7a:9b:76:11:f7:81:83:
                    63:b0:89:32:d6:a5:c0:5e:9e:d3:16:3e:30:53:7a:
                    4c:f9:9f:94:81:09:58:d1:12:1b:3f:c0:a2:bb:ff:
                    40:47:82:af:7e:12:00:b9:20:5e:b1:31:fe:88:c4:
                    29:ee:f8:94:9b:c8:01:d5:db:12:20:86:ed:4e:71:
                    8b:3a:ba:ea:40:5f:cb:57:b6:97:5a:df:e1:5b:1a:
                    3f:f8:e6:89:44:94:65:43:5c:64:24:8b:9c:ae:c3:
                    d1:cf
                Exponent: 65537 (0x10001)
        X509v3 extensions:
            X509v3 Basic Constraints: 
                CA:FALSE
            X509v3 Subject Key Identifier: 
                1D:BD:F8:9E:71:C3:D7:52:85:C2:6C:74:22:10:20:39:86:9E:1B:27
            X509v3 Authority Key Identifier: 
                keyid:19:2A:9D:17:87:75:7A:0F:56:8E:00:A1:E3:84:2A:B6:A0:70:93:CC
                DirName:/CN=Easy-RSA CA
                serial:12:D0:97:0B:E1:5E:66:83:52:B1:EE:3E:AE:12:23:21:4F:B7:41:EC

            X509v3 Extended Key Usage: 
                TLS Web Server Authentication
            X509v3 Key Usage: 
                Digital Signature, Key Encipherment
            X509v3 Subject Alternative Name: 
                IP Address:127.0.0.1
    Signature Algorithm: sha256WithRSAEncryption
         64:10:52:fb:8a:29:d0:d7:e8:9a:36:bb:8a:86:16:08:e7:72:
         7f:4f:43:2a:af:e3:3e:f4:b4:a9:61:46:4b:1c:98:c4:6e:09:
         33:d6:43:c1:c4:fc:14:b4:79:5a:e6:17:95:20:43:cf:28:53:
         f9:27:e2:06:84:1c:29:b4:99:e6:b3:50:e8:cc:df:4f:8f:b5:
         27:52:25:ab:0c:09:c9:af:a5:00:bf:31:c1:c9:1a:2a:8d:1b:
         83:24:8f:6b:6e:66:fe:ca:fa:e0:58:b7:52:89:2f:f8:b9:d2:
         83:cc:dd:31:df:7e:76:ba:45:ce:e4:5a:55:01:bb:68:1d:e8:
         e5:9b:71:86:df:25:9b:18:23:65:24:ba:b8:28:fb:05:c9:41:
         cf:67:07:1d:ab:5c:98:ee:31:2a:76:e6:d9:f9:36:87:03:d8:
         f6:7c:7f:17:5f:e8:e9:b2:41:0b:a0:55:cb:8a:23:1e:92:11:
         78:a7:11:44:ec:ae:c4:33:e5:97:c6:74:21:e3:27:1e:70:e6:
         64:1e:21:57:81:28:c4:ed:c4:76:d1:7f:51:ae:b0:bd:c9:36:
         d2:82:a6:37:6e:02:ac:23:1e:72:58:9c:d7:cc:54:3e:fe:cc:
         16:f9:91:41:9e:de:1a:cc:40:bc:ff:1d:aa:3a:08:29:eb:85:
         68:98:05:5d
-----BEGIN CERTIFICATE-----
MIIDaTCCAlGgAwIBAgIRAPu9li/6LQzls0RXU+Uc7C8wDQYJKoZIhvcNAQELBQAw
FjEUMBIGA1UEAwwLRWFzeS1SU0EgQ0EwHhcNMjExMTI2MDk1MzQ3WhcNMjQwMjI5
MDk1MzQ3WjAUMRIwEAYDVQQDDAkxMjcuMC4wLjEwggEiMA0GCSqGSIb3DQEBAQUA
A4IBDwAwggEKAoIBAQC/WOx639yfJqnfr/DneROEl6NpfrxJrG2LsjNA5Mragyg2
nSZFNNf1LZYX9P+1JVUXFKKznuvNkqC47PlNI9Xe2ichE9rPAlUAUy7Fg9atn3Oy
RSoueV4Xa9YPvXbBn3aRVmiI7ydEVmk41vCAQ+m5at5zqE+NDdWEpsD1WJY1f7fs
OlWYU6LtLZqx36XwqRSN6xIJZeyZESeTgka+ept2EfeBg2OwiTLWpcBentMWPjBT
ekz5n5SBCVjREhs/wKK7/0BHgq9+EgC5IF6xMf6IxCnu+JSbyAHV2xIghu1OcYs6
uupAX8tXtpda3+FbGj/45olElGVDXGQki5yuw9HPAgMBAAGjgbMwgbAwCQYDVR0T
BAIwADAdBgNVHQ4EFgQUHb34nnHD11KFwmx0IhAgOYaeGycwUQYDVR0jBEowSIAU
GSqdF4d1eg9WjgCh44QqtqBwk8yhGqQYMBYxFDASBgNVBAMMC0Vhc3ktUlNBIENB
ghQS0JcL4V5mg1Kx7j6uEiMhT7dB7DATBgNVHSUEDDAKBggrBgEFBQcDATALBgNV
HQ8EBAMCBaAwDwYDVR0RBAgwBocEfwAAATANBgkqhkiG9w0BAQsFAAOCAQEAZBBS
+4op0Nfomja7ioYWCOdyf09DKq/jPvS0qWFGSxyYxG4JM9ZDwcT8FLR5WuYXlSBD
zyhT+SfiBoQcKbSZ5rNQ6MzfT4+1J1IlqwwJya+lAL8xwckaKo0bgySPa25m/sr6
4Fi3Uokv+LnSg8zdMd9+drpFzuRaVQG7aB3o5Ztxht8lmxgjZSS6uCj7BclBz2cH
HatcmO4xKnbm2fk2hwPY9nx/F1/o6bJBC6BVy4ojHpIReKcRROyuxDPll8Z0IeMn
HnDmZB4hV4EoxO3EdtF/Ua6wvck20oKmN24CrCMeclic18xUPv7MFvmRQZ7eGsxA
vP8dqjoIKeuFaJgFXQ==
-----END CERTIFICATE-----
