Certificate:
    Data:
        Version: 3 (0x2)
        Serial Number:
            8f:22:f5:a6:81:d6:95:98:2b:b2:ca:95:e3:af:78:6f
        Signature Algorithm: sha256WithRSAEncryption
        Issuer: CN=Easy-RSA CA
        Validity
            Not Before: Nov 27 18:39:09 2021 GMT
            Not After : Mar  1 18:39:09 2024 GMT
        Subject: CN=ENTRY
        Subject Public Key Info:
            Public Key Algorithm: rsaEncryption
                RSA Public-Key: (2048 bit)
                Modulus:
                    00:ed:b8:e2:fc:4e:63:2b:7b:de:ec:80:07:85:4b:
                    af:21:1b:58:55:cc:39:be:ee:e7:4d:5b:c4:27:d2:
                    4c:36:36:4a:c2:6a:b6:76:81:f6:26:10:11:a1:dd:
                    86:5b:b5:59:e9:07:8d:f1:05:44:44:6d:aa:47:51:
                    b2:ba:1d:81:6c:5f:5f:64:07:f1:58:75:31:46:a8:
                    fb:6b:77:dd:d5:1d:35:a2:17:d5:1a:a7:52:04:74:
                    10:b7:fb:3c:ae:f9:73:82:90:ee:c5:e7:1d:18:bb:
                    89:68:0f:bc:a3:ce:3d:e4:3d:0b:56:72:5a:0a:1f:
                    d8:3d:77:e1:4f:05:c0:f0:30:ca:e4:03:5c:66:bc:
                    c5:27:a9:0a:ca:c2:09:fd:f1:9d:d9:50:5f:bf:7d:
                    d2:c3:07:d2:28:75:64:de:9d:93:40:08:86:b4:8a:
                    f9:c8:19:5a:da:5e:b4:3d:7e:3a:78:8a:09:bf:58:
                    4b:25:da:a1:a1:52:a5:2c:bd:56:9b:9b:8a:37:42:
                    17:9f:09:d5:80:1c:8b:c4:a0:bc:3a:75:e7:44:aa:
                    14:85:d3:22:cc:76:7d:dd:b7:a8:7c:b5:6e:1d:9e:
                    33:b3:53:5c:75:51:bd:da:32:ae:16:8a:dc:b9:b3:
                    f6:f3:f5:ee:4f:82:14:28:c8:0b:46:9e:19:df:d8:
                    b6:c7
                Exponent: 65537 (0x10001)
        X509v3 extensions:
            X509v3 Basic Constraints: 
                CA:FALSE
            X509v3 Subject Key Identifier: 
                C6:4C:0B:61:42:18:FA:37:78:47:89:09:C7:8C:99:85:2C:A7:DC:E3
            X509v3 Authority Key Identifier: 
                keyid:20:21:DA:DD:53:4B:6B:52:20:B9:4E:9F:5D:ED:54:B3:7D:D6:1B:DF
                DirName:/CN=Easy-RSA CA
                serial:49:A5:19:6F:B6:D5:50:C5:45:DA:C3:80:5B:1A:3B:86:ED:C4:FB:9B

            X509v3 Extended Key Usage: 
                TLS Web Client Authentication
            X509v3 Key Usage: 
                Digital Signature
    Signature Algorithm: sha256WithRSAEncryption
         bc:ba:38:e4:61:b9:5a:04:9c:64:ea:e9:bb:2c:ea:73:87:b4:
         36:25:29:58:81:a8:43:3e:bd:74:7e:7a:53:6c:24:79:9c:0e:
         2b:44:a2:d8:1e:07:d6:eb:c9:d7:ed:c4:03:78:97:00:bc:a2:
         50:65:b8:0e:fb:da:86:de:8d:28:bb:14:af:d6:dd:2e:b5:b5:
         d8:bf:12:34:fe:ca:76:16:39:42:58:e8:4e:8e:3a:47:40:8b:
         19:53:43:80:86:26:01:1c:af:7b:11:0d:19:0f:4b:0c:2f:05:
         af:8a:89:40:7b:f1:19:35:b2:21:41:cf:33:35:90:a8:58:91:
         3b:27:b7:b5:8b:eb:67:5c:7f:e7:a5:e4:36:e0:fc:a5:2d:7e:
         65:0d:11:fe:fa:51:42:a0:f5:5e:9e:c0:ca:71:ce:32:24:b5:
         3c:c9:31:79:59:78:c2:27:df:f8:5b:cf:e2:67:48:31:40:dd:
         43:0b:3c:5c:40:8e:04:78:e1:ae:cf:a1:0e:a3:8a:58:69:37:
         69:c2:65:dd:18:4d:cc:cf:3a:a1:1e:3e:1b:b7:bb:1d:70:fb:
         79:36:0a:29:a4:b4:8d:59:6b:22:2e:67:81:3f:e8:60:3b:89:
         6a:ce:f6:e9:9a:9c:e8:d4:32:37:1a:4a:a4:f6:3b:60:bf:4f:
         a5:76:e3:d2
-----BEGIN CERTIFICATE-----
MIIDVDCCAjygAwIBAgIRAI8i9aaB1pWYK7LKleOveG8wDQYJKoZIhvcNAQELBQAw
FjEUMBIGA1UEAwwLRWFzeS1SU0EgQ0EwHhcNMjExMTI3MTgzOTA5WhcNMjQwMzAx
MTgzOTA5WjAQMQ4wDAYDVQQDDAVFTlRSWTCCASIwDQYJKoZIhvcNAQEBBQADggEP
ADCCAQoCggEBAO244vxOYyt73uyAB4VLryEbWFXMOb7u501bxCfSTDY2SsJqtnaB
9iYQEaHdhlu1WekHjfEFRERtqkdRsrodgWxfX2QH8Vh1MUao+2t33dUdNaIX1Rqn
UgR0ELf7PK75c4KQ7sXnHRi7iWgPvKPOPeQ9C1ZyWgof2D134U8FwPAwyuQDXGa8
xSepCsrCCf3xndlQX7990sMH0ih1ZN6dk0AIhrSK+cgZWtpetD1+OniKCb9YSyXa
oaFSpSy9VpubijdCF58J1YAci8SgvDp150SqFIXTIsx2fd23qHy1bh2eM7NTXHVR
vdoyrhaK3Lmz9vP17k+CFCjIC0aeGd/YtscCAwEAAaOBojCBnzAJBgNVHRMEAjAA
MB0GA1UdDgQWBBTGTAthQhj6N3hHiQnHjJmFLKfc4zBRBgNVHSMESjBIgBQgIdrd
U0trUiC5Tp9d7VSzfdYb36EapBgwFjEUMBIGA1UEAwwLRWFzeS1SU0EgQ0GCFEml
GW+21VDFRdrDgFsaO4btxPubMBMGA1UdJQQMMAoGCCsGAQUFBwMCMAsGA1UdDwQE
AwIHgDANBgkqhkiG9w0BAQsFAAOCAQEAvLo45GG5WgScZOrpuyzqc4e0NiUpWIGo
Qz69dH56U2wkeZwOK0Si2B4H1uvJ1+3EA3iXALyiUGW4Dvvaht6NKLsUr9bdLrW1
2L8SNP7KdhY5QljoTo46R0CLGVNDgIYmARyvexENGQ9LDC8Fr4qJQHvxGTWyIUHP
MzWQqFiROye3tYvrZ1x/56XkNuD8pS1+ZQ0R/vpRQqD1Xp7AynHOMiS1PMkxeVl4
wiff+FvP4mdIMUDdQws8XECOBHjhrs+hDqOKWGk3acJl3RhNzM86oR4+G7e7HXD7
eTYKKaS0jVlrIi5ngT/oYDuJas726Zqc6NQyNxpKpPY7YL9PpXbj0g==
-----END CERTIFICATE-----
