Certificate:
    Data:
        Version: 3 (0x2)
        Serial Number:
            1f:9e:bc:48:06:0e:d3:33:5d:a5:3d:53:bd:1f:1c:3d
        Signature Algorithm: sha256WithRSAEncryption
        Issuer: CN=Wouter
        Validity
            Not Before: Dec  9 14:09:36 2021 GMT
            Not After : Mar 13 14:09:36 2024 GMT
        Subject: CN=ENTRY
        Subject Public Key Info:
            Public Key Algorithm: rsaEncryption
                RSA Public-Key: (2048 bit)
                Modulus:
                    00:a7:65:68:a7:cd:2d:46:82:f9:c1:b6:b9:c7:4c:
                    9e:01:2d:fa:e1:69:51:12:15:95:ee:82:9b:64:81:
                    63:49:96:e4:62:7f:f1:7e:24:58:81:62:97:20:b0:
                    2c:ea:55:ce:74:5c:22:e3:f9:33:91:a4:69:19:b1:
                    4f:3f:30:d0:8b:b6:5d:0c:5d:2f:85:43:83:87:20:
                    dc:40:12:1f:16:19:30:5e:ae:44:be:71:4a:26:f7:
                    e7:87:98:d7:24:15:5a:db:56:3a:02:c7:b0:c1:9a:
                    8b:6f:4a:2d:2c:88:09:7e:f0:0c:bc:c7:d8:78:9e:
                    d6:8d:07:34:c3:15:41:e1:31:57:e9:5f:b7:6d:40:
                    c7:1a:37:32:08:ba:30:df:13:5a:20:12:84:ad:db:
                    2b:ce:59:6e:c3:34:77:c4:b8:3d:22:27:80:fe:5c:
                    41:f1:c1:be:35:96:ec:d5:87:27:2a:13:7b:ae:02:
                    5a:39:00:60:3b:2f:66:f7:50:5b:ce:ec:f5:af:13:
                    4d:b0:d3:e5:eb:e2:b6:da:5e:59:e6:51:b2:c3:83:
                    9b:ac:9f:62:a7:a1:b5:87:c1:28:ec:6c:3f:76:67:
                    e6:5e:03:11:78:3c:f4:b0:67:08:b5:3c:00:37:f4:
                    41:ad:09:a1:7e:89:b8:55:0f:c9:5c:67:ea:3f:51:
                    e2:15
                Exponent: 65537 (0x10001)
        X509v3 extensions:
            X509v3 Basic Constraints: 
                CA:FALSE
            X509v3 Subject Key Identifier: 
                9B:BA:E6:A7:32:FA:AA:56:1B:80:53:46:49:E9:5E:FA:51:95:C0:88
            X509v3 Authority Key Identifier: 
                keyid:D6:7F:DF:23:E7:D8:02:00:CF:F5:5C:92:90:C3:F6:28:DD:1C:72:E8
                DirName:/CN=Wouter
                serial:1F:9D:71:6B:BF:F6:84:C4:FD:BE:CB:A0:27:F8:2F:8A:0B:65:EC:97

            X509v3 Extended Key Usage: 
                TLS Web Client Authentication
            X509v3 Key Usage: 
                Digital Signature
    Signature Algorithm: sha256WithRSAEncryption
         5a:44:88:9e:41:72:6c:1e:b8:9b:4c:8a:24:7a:b4:c1:80:7f:
         fd:d1:9b:a1:84:70:a8:b0:f1:5f:92:35:10:32:6c:c1:c0:c8:
         40:e6:a2:5d:da:91:34:82:86:8e:e5:26:a6:17:78:d9:52:85:
         5c:8d:95:9c:f5:9c:eb:f9:65:cf:1c:df:f7:ee:04:2d:fc:28:
         02:6c:7f:b1:a0:26:37:64:86:8f:0c:2a:e6:45:64:35:cf:8d:
         3f:90:4d:af:ef:db:46:f6:fc:e4:06:67:d9:eb:eb:b1:33:ee:
         7d:26:5f:20:b7:3a:6a:8e:b5:ca:77:53:43:4d:0f:be:87:c1:
         f0:8b:9a:10:cc:aa:9c:bf:b3:f0:ac:74:3e:41:fa:ac:cc:49:
         68:a9:18:59:2b:a7:ad:45:76:61:27:d5:10:0d:37:32:a9:cf:
         17:29:5d:31:0b:4f:b3:bb:5d:25:0c:88:96:c5:9e:bb:1f:d8:
         22:6d:80:dd:09:f4:76:d2:ca:cb:72:f4:9c:a2:3e:71:bf:d0:
         b8:d9:c5:96:d1:05:c8:6e:b8:db:12:fe:1b:c6:c0:c4:59:77:
         64:d3:4e:1a:f2:37:9c:d8:a6:f8:15:97:d9:8f:3b:ea:d9:13:
         10:a9:e0:cc:fc:9d:57:8c:b9:fe:59:ac:74:b3:9b:90:48:be:
         14:5e:53:ca
-----BEGIN CERTIFICATE-----
MIIDSTCCAjGgAwIBAgIQH568SAYO0zNdpT1TvR8cPTANBgkqhkiG9w0BAQsFADAR
MQ8wDQYDVQQDDAZXb3V0ZXIwHhcNMjExMjA5MTQwOTM2WhcNMjQwMzEzMTQwOTM2
WjAQMQ4wDAYDVQQDDAVFTlRSWTCCASIwDQYJKoZIhvcNAQEBBQADggEPADCCAQoC
ggEBAKdlaKfNLUaC+cG2ucdMngEt+uFpURIVle6Cm2SBY0mW5GJ/8X4kWIFilyCw
LOpVznRcIuP5M5GkaRmxTz8w0Iu2XQxdL4VDg4cg3EASHxYZMF6uRL5xSib354eY
1yQVWttWOgLHsMGai29KLSyICX7wDLzH2Hie1o0HNMMVQeExV+lft21Axxo3Mgi6
MN8TWiAShK3bK85ZbsM0d8S4PSIngP5cQfHBvjWW7NWHJyoTe64CWjkAYDsvZvdQ
W87s9a8TTbDT5evittpeWeZRssODm6yfYqehtYfBKOxsP3Zn5l4DEXg89LBnCLU8
ADf0Qa0JoX6JuFUPyVxn6j9R4hUCAwEAAaOBnTCBmjAJBgNVHRMEAjAAMB0GA1Ud
DgQWBBSbuuanMvqqVhuAU0ZJ6V76UZXAiDBMBgNVHSMERTBDgBTWf98j59gCAM/1
XJKQw/Yo3Rxy6KEVpBMwETEPMA0GA1UEAwwGV291dGVyghQfnXFrv/aExP2+y6An
+C+KC2XslzATBgNVHSUEDDAKBggrBgEFBQcDAjALBgNVHQ8EBAMCB4AwDQYJKoZI
hvcNAQELBQADggEBAFpEiJ5BcmweuJtMiiR6tMGAf/3Rm6GEcKiw8V+SNRAybMHA
yEDmol3akTSCho7lJqYXeNlShVyNlZz1nOv5Zc8c3/fuBC38KAJsf7GgJjdkho8M
KuZFZDXPjT+QTa/v20b2/OQGZ9nr67Ez7n0mXyC3OmqOtcp3U0NND76HwfCLmhDM
qpy/s/CsdD5B+qzMSWipGFkrp61FdmEn1RANNzKpzxcpXTELT7O7XSUMiJbFnrsf
2CJtgN0J9HbSysty9JyiPnG/0LjZxZbRBchuuNsS/hvGwMRZd2TTThryN5zYpvgV
l9mPO+rZExCp4Mz8nVeMuf5ZrHSzm5BIvhReU8o=
-----END CERTIFICATE-----
