Certificate:
    Data:
        Version: 3 (0x2)
        Serial Number:
            2a:58:09:5b:ae:1c:ce:ff:d0:e9:82:65:d2:cd:d8:fd
        Signature Algorithm: sha256WithRSAEncryption
        Issuer: CN=Easy-RSA CA
        Validity
            Not Before: Nov 26 09:57:33 2021 GMT
            Not After : Feb 29 09:57:33 2024 GMT
        Subject: CN=ENTRY
        Subject Public Key Info:
            Public Key Algorithm: rsaEncryption
                RSA Public-Key: (2048 bit)
                Modulus:
                    00:f5:ea:b8:a7:d9:b2:37:4a:71:8c:83:7a:7d:27:
                    4a:10:fe:8e:57:71:6d:2e:32:6f:cf:c7:50:fd:2e:
                    ac:cd:f6:ec:85:bd:cb:1a:99:cd:5c:5c:f4:8c:c2:
                    0b:9c:30:06:11:d7:10:d0:e9:45:bd:a0:7c:53:9e:
                    91:23:2b:48:66:ca:71:7e:02:b1:69:11:04:c2:c7:
                    f5:50:ab:ed:0e:d0:fc:96:54:dd:2f:a0:1a:78:2e:
                    ae:f3:54:61:50:b0:71:42:27:18:19:57:39:e3:25:
                    b9:3d:69:48:46:b1:a7:d0:05:20:b5:6d:4d:2c:b2:
                    32:04:30:8c:3f:49:04:fd:50:b8:0f:73:ab:f7:12:
                    b7:15:32:59:e5:30:43:dd:1f:ea:6a:c5:9f:63:bb:
                    68:5c:df:ed:a9:e7:b6:30:3b:cd:db:66:5b:ab:b2:
                    2e:4e:11:49:cd:a9:cc:09:7c:81:e7:c9:75:83:8e:
                    c8:f8:2a:60:fa:c9:db:8b:e4:f9:26:4b:ae:72:24:
                    ec:cb:b9:49:cc:4a:e2:77:30:82:2a:82:12:44:0f:
                    e8:cf:64:ba:64:88:ca:63:ba:99:01:7b:96:19:53:
                    19:12:0f:c3:37:72:8d:2c:e5:7e:b5:77:96:0a:a6:
                    7c:fc:b0:80:d1:54:b0:26:26:41:48:5d:7b:95:f2:
                    34:b5
                Exponent: 65537 (0x10001)
        X509v3 extensions:
            X509v3 Basic Constraints: 
                CA:FALSE
            X509v3 Subject Key Identifier: 
                C9:CD:C4:CF:33:DB:2E:71:41:D7:43:11:85:12:05:2D:FA:75:38:C9
            X509v3 Authority Key Identifier: 
                keyid:19:2A:9D:17:87:75:7A:0F:56:8E:00:A1:E3:84:2A:B6:A0:70:93:CC
                DirName:/CN=Easy-RSA CA
                serial:12:D0:97:0B:E1:5E:66:83:52:B1:EE:3E:AE:12:23:21:4F:B7:41:EC

            X509v3 Extended Key Usage: 
                TLS Web Client Authentication
            X509v3 Key Usage: 
                Digital Signature
    Signature Algorithm: sha256WithRSAEncryption
         53:98:b7:30:88:3e:5e:62:ab:e0:3e:0c:b5:64:61:3a:b1:e9:
         ba:47:3f:b4:1f:50:88:d5:f9:82:1a:65:a9:da:dc:1e:a1:77:
         33:8e:35:d4:88:77:bb:98:5e:27:d8:bc:32:50:b1:0e:ac:59:
         67:0c:f0:28:60:42:47:79:7a:9a:7d:b9:f5:13:d5:1a:3a:61:
         f8:b7:1a:4e:a8:a0:33:6a:1b:25:c3:61:78:6d:10:5f:6c:44:
         81:e2:78:d8:d8:5f:f6:d0:65:4d:d8:ff:aa:24:28:90:82:ba:
         48:0f:df:14:49:ad:d5:bd:0e:1c:95:1e:88:ed:3e:26:06:27:
         30:0b:e9:33:dd:60:a0:66:38:a5:90:4d:1c:d6:4e:9d:b7:c3:
         19:97:8e:25:fa:86:5e:7b:57:39:85:14:37:fe:da:8d:69:42:
         0e:5d:73:b1:bf:43:73:75:ea:a2:a2:c9:24:dd:6e:30:56:59:
         0e:a1:2a:d5:0c:da:c1:b0:d1:1c:07:5f:e0:16:63:78:fe:47:
         9e:4c:48:31:f1:21:22:5c:97:22:81:52:de:23:58:f8:e7:46:
         cc:c7:ff:ae:0e:49:27:f5:76:9b:a3:f2:ef:39:a3:dd:72:47:
         d7:99:0a:47:9c:99:a8:b8:45:5a:d5:e2:3c:48:77:e9:f0:52:
         df:e8:fe:9f
-----BEGIN CERTIFICATE-----
MIIDUzCCAjugAwIBAgIQKlgJW64czv/Q6YJl0s3Y/TANBgkqhkiG9w0BAQsFADAW
MRQwEgYDVQQDDAtFYXN5LVJTQSBDQTAeFw0yMTExMjYwOTU3MzNaFw0yNDAyMjkw
OTU3MzNaMBAxDjAMBgNVBAMMBUVOVFJZMIIBIjANBgkqhkiG9w0BAQEFAAOCAQ8A
MIIBCgKCAQEA9eq4p9myN0pxjIN6fSdKEP6OV3FtLjJvz8dQ/S6szfbshb3LGpnN
XFz0jMILnDAGEdcQ0OlFvaB8U56RIytIZspxfgKxaREEwsf1UKvtDtD8llTdL6Aa
eC6u81RhULBxQicYGVc54yW5PWlIRrGn0AUgtW1NLLIyBDCMP0kE/VC4D3Or9xK3
FTJZ5TBD3R/qasWfY7toXN/tqee2MDvN22Zbq7IuThFJzanMCXyB58l1g47I+Cpg
+snbi+T5JkuuciTsy7lJzEridzCCKoISRA/oz2S6ZIjKY7qZAXuWGVMZEg/DN3KN
LOV+tXeWCqZ8/LCA0VSwJiZBSF17lfI0tQIDAQABo4GiMIGfMAkGA1UdEwQCMAAw
HQYDVR0OBBYEFMnNxM8z2y5xQddDEYUSBS36dTjJMFEGA1UdIwRKMEiAFBkqnReH
dXoPVo4AoeOEKragcJPMoRqkGDAWMRQwEgYDVQQDDAtFYXN5LVJTQSBDQYIUEtCX
C+FeZoNSse4+rhIjIU+3QewwEwYDVR0lBAwwCgYIKwYBBQUHAwIwCwYDVR0PBAQD
AgeAMA0GCSqGSIb3DQEBCwUAA4IBAQBTmLcwiD5eYqvgPgy1ZGE6sem6Rz+0H1CI
1fmCGmWp2tweoXczjjXUiHe7mF4n2LwyULEOrFlnDPAoYEJHeXqafbn1E9UaOmH4
txpOqKAzahslw2F4bRBfbESB4njY2F/20GVN2P+qJCiQgrpID98USa3VvQ4clR6I
7T4mBicwC+kz3WCgZjilkE0c1k6dt8MZl44l+oZee1c5hRQ3/tqNaUIOXXOxv0Nz
deqioskk3W4wVlkOoSrVDNrBsNEcB1/gFmN4/keeTEgx8SEiXJcigVLeI1j450bM
x/+uDkkn9Xabo/LvOaPdckfXmQpHnJmouEVa1eI8SHfp8FLf6P6f
-----END CERTIFICATE-----
